target datalayout = "e-m:e-p270:32:32-p271:32:32-p272:64:64-i64:64-i128:128-f80:128-n8:16:32:64-S128"
target triple = "x86_64-pc-linux-gnu"

%struct._GError = type { i32, i32, ptr }
%struct.GtkApi = type { i32, ptr, ptr, ptr, ptr, ptr, ptr, ptr, ptr, ptr, ptr, ptr, ptr, ptr, ptr, ptr, ptr, ptr, ptr, ptr, ptr, ptr, ptr, ptr, ptr, ptr, ptr, ptr, ptr, ptr, ptr, ptr, ptr, ptr, ptr, ptr, ptr, ptr, ptr, ptr, ptr, ptr, ptr, ptr, ptr, ptr, ptr, ptr, ptr, ptr, ptr, ptr, ptr, ptr, ptr, ptr, ptr, ptr, ptr, ptr, ptr, ptr, ptr, ptr, ptr, ptr, ptr, ptr, ptr, ptr, ptr, ptr, ptr, ptr, ptr, ptr, ptr, ptr, ptr, ptr, ptr, ptr, ptr, ptr, ptr, ptr, ptr, ptr, ptr, ptr, ptr, ptr, ptr, ptr, ptr, ptr, ptr, ptr, ptr, ptr, ptr, ptr, ptr, ptr, ptr }
%struct.XdgDesktopPortalApi = type { ptr, ptr, ptr, ptr }
%struct._GString = type { ptr, i64, i64 }
%struct.DBusCallbackHelper = type { i32, ptr, i32 }
%struct._GVariantBuilder = type { %union.anon }
%union.anon = type { %struct.anon }
%struct.anon = type { i64, ptr, [14 x i64] }

@portal = hidden global ptr null, align 8
@stderr = external global ptr, align 8
@.str = private unnamed_addr constant [50 x i8] c"!!! %s:%i Error: domain %i code %i message: \22%s\22\0A\00", align 1
@gtk = external global ptr, align 8
@.str.25 = private unnamed_addr constant [31 x i8] c"org.freedesktop.portal.Desktop\00", align 1
@.str.28 = private unnamed_addr constant [6 x i8] c"a{sv}\00", align 1
@.str.29 = private unnamed_addr constant [5 x i8] c"{sv}\00", align 1
@.str.30 = private unnamed_addr constant [13 x i8] c"handle_token\00", align 1
@.str.31 = private unnamed_addr constant [21 x i8] c"session_handle_token\00", align 1
@.str.32 = private unnamed_addr constant [14 x i8] c"CreateSession\00", align 1
@.str.33 = private unnamed_addr constant [8 x i8] c"(a{sv})\00", align 1
@.str.34 = private unnamed_addr constant [47 x i8] c"%s:%i Failed to create ScreenCast session: %s\0A\00", align 1
@__func__.portalScreenCastCreateSession = private unnamed_addr constant [30 x i8] c"portalScreenCastCreateSession\00", align 1
@updateRequestPath.counter = internal global i64 0, align 8
@.str.65 = private unnamed_addr constant [15 x i8] c"awtPipewire%lu\00", align 1
@.str.66 = private unnamed_addr constant [58 x i8] c"/org/freedesktop/portal/desktop/request/%s/awtPipewire%lu\00", align 1
@updateSessionToken.counter = internal global i64 0, align 8
@.str.67 = private unnamed_addr constant [31 x i8] c"org.freedesktop.portal.Request\00", align 1
@.str.68 = private unnamed_addr constant [9 x i8] c"Response\00", align 1

; Function Attrs: nounwind uwtable
define internal void @unregisterScreenCastCallback(ptr noundef %0) #0 {
  %2 = alloca ptr, align 8
  store ptr %0, ptr %2, align 8
  %3 = load ptr, ptr %2, align 8
  %4 = getelementptr inbounds %struct.DBusCallbackHelper, ptr %3, i32 0, i32 0
  %5 = load i32, ptr %4, align 8
  %6 = icmp ne i32 %5, 0
  br i1 %6, label %7, label %17

7:                                                ; preds = %1
  %8 = load ptr, ptr @gtk, align 8
  %9 = getelementptr inbounds %struct.GtkApi, ptr %8, i32 0, i32 94
  %10 = load ptr, ptr %9, align 8
  %11 = load ptr, ptr @portal, align 8
  %12 = getelementptr inbounds %struct.XdgDesktopPortalApi, ptr %11, i32 0, i32 0
  %13 = load ptr, ptr %12, align 8
  %14 = load ptr, ptr %2, align 8
  %15 = getelementptr inbounds %struct.DBusCallbackHelper, ptr %14, i32 0, i32 0
  %16 = load i32, ptr %15, align 8
  call void %10(ptr noundef %13, i32 noundef %16)
  br label %17

17:                                               ; preds = %7, %1
  ret void
}

; Function Attrs: nounwind uwtable
define hidden void @errHandle(ptr noundef %0, ptr noundef %1, i32 noundef %2) #0 {
  %4 = alloca ptr, align 8
  %5 = alloca ptr, align 8
  %6 = alloca i32, align 4
  store ptr %0, ptr %4, align 8
  store ptr %1, ptr %5, align 8
  store i32 %2, ptr %6, align 4
  %7 = load ptr, ptr %4, align 8
  %8 = icmp ne ptr %7, null
  br i1 %8, label %9, label %23

9:                                                ; preds = %3
  %10 = load ptr, ptr @stderr, align 8
  %11 = load ptr, ptr %5, align 8
  %12 = load i32, ptr %6, align 4
  %13 = load ptr, ptr %4, align 8
  %14 = getelementptr inbounds %struct._GError, ptr %13, i32 0, i32 0
  %15 = load i32, ptr %14, align 8
  %16 = load ptr, ptr %4, align 8
  %17 = getelementptr inbounds %struct._GError, ptr %16, i32 0, i32 1
  %18 = load i32, ptr %17, align 4
  %19 = load ptr, ptr %4, align 8
  %20 = getelementptr inbounds %struct._GError, ptr %19, i32 0, i32 2
  %21 = load ptr, ptr %20, align 8
  %22 = call i32 (ptr, ptr, ...) @fprintf(ptr noundef %10, ptr noundef @.str, ptr noundef %11, i32 noundef %12, i32 noundef %15, i32 noundef %18, ptr noundef %21) #7
  br label %23

23:                                               ; preds = %9, %3
  %24 = load ptr, ptr %4, align 8
  %25 = icmp ne ptr %24, null
  br i1 %25, label %26, label %31

26:                                               ; preds = %23
  %27 = load ptr, ptr @gtk, align 8
  %28 = getelementptr inbounds %struct.GtkApi, ptr %27, i32 0, i32 98
  %29 = load ptr, ptr %28, align 8
  %30 = load ptr, ptr %4, align 8
  call void %29(ptr noundef %30)
  br label %31

31:                                               ; preds = %26, %23
  store ptr null, ptr %4, align 8
  ret void
}

; Function Attrs: nounwind uwtable
define internal void @registerScreenCastCallback(ptr noundef %0, ptr noundef %1, ptr noundef %2) #0 {
  %4 = alloca ptr, align 8
  %5 = alloca ptr, align 8
  %6 = alloca ptr, align 8
  store ptr %0, ptr %4, align 8
  store ptr %1, ptr %5, align 8
  store ptr %2, ptr %6, align 8
  %7 = load ptr, ptr @gtk, align 8
  %8 = getelementptr inbounds %struct.GtkApi, ptr %7, i32 0, i32 93
  %9 = load ptr, ptr %8, align 8
  %10 = load ptr, ptr @portal, align 8
  %11 = getelementptr inbounds %struct.XdgDesktopPortalApi, ptr %10, i32 0, i32 0
  %12 = load ptr, ptr %11, align 8
  %13 = load ptr, ptr %4, align 8
  %14 = load ptr, ptr %6, align 8
  %15 = load ptr, ptr %5, align 8
  %16 = call i32 %9(ptr noundef %12, ptr noundef @.str.25, ptr noundef @.str.67, ptr noundef @.str.68, ptr noundef %13, ptr noundef null, i32 noundef 1, ptr noundef %14, ptr noundef %15, ptr noundef null)
  %17 = load ptr, ptr %5, align 8
  %18 = getelementptr inbounds %struct.DBusCallbackHelper, ptr %17, i32 0, i32 0
  store i32 %16, ptr %18, align 8
  ret void
}

; Function Attrs: nounwind uwtable
define internal void @updateSessionToken(ptr noundef %0) #0 {
  %2 = alloca ptr, align 8
  %3 = alloca ptr, align 8
  store ptr %0, ptr %2, align 8
  %4 = load i64, ptr @updateSessionToken.counter, align 8
  %5 = add i64 %4, 1
  store i64 %5, ptr @updateSessionToken.counter, align 8
  %6 = load ptr, ptr @gtk, align 8
  %7 = getelementptr inbounds %struct.GtkApi, ptr %6, i32 0, i32 83
  %8 = load ptr, ptr %7, align 8
  %9 = call ptr %8(ptr noundef null)
  store ptr %9, ptr %3, align 8
  %10 = load ptr, ptr @gtk, align 8
  %11 = getelementptr inbounds %struct.GtkApi, ptr %10, i32 0, i32 88
  %12 = load ptr, ptr %11, align 8
  %13 = load ptr, ptr %3, align 8
  %14 = load i64, ptr @updateSessionToken.counter, align 8
  %15 = call ptr (ptr, ptr, ...) %12(ptr noundef %13, ptr noundef @.str.65, i64 noundef %14)
  %16 = load ptr, ptr %3, align 8
  %17 = getelementptr inbounds %struct._GString, ptr %16, i32 0, i32 0
  %18 = load ptr, ptr %17, align 8
  %19 = load ptr, ptr %2, align 8
  store ptr %18, ptr %19, align 8
  %20 = load ptr, ptr @gtk, align 8
  %21 = getelementptr inbounds %struct.GtkApi, ptr %20, i32 0, i32 86
  %22 = load ptr, ptr %21, align 8
  %23 = load ptr, ptr %3, align 8
  %24 = call ptr %22(ptr noundef %23, i32 noundef 0)
  ret void
}

; Function Attrs: nounwind uwtable
define internal void @updateRequestPath(ptr noundef %0, ptr noundef %1) #0 {
  %3 = alloca ptr, align 8
  %4 = alloca ptr, align 8
  %5 = alloca ptr, align 8
  %6 = alloca ptr, align 8
  store ptr %0, ptr %3, align 8
  store ptr %1, ptr %4, align 8
  %7 = load i64, ptr @updateRequestPath.counter, align 8
  %8 = add i64 %7, 1
  store i64 %8, ptr @updateRequestPath.counter, align 8
  %9 = load ptr, ptr @gtk, align 8
  %10 = getelementptr inbounds %struct.GtkApi, ptr %9, i32 0, i32 83
  %11 = load ptr, ptr %10, align 8
  %12 = call ptr %11(ptr noundef null)
  store ptr %12, ptr %5, align 8
  %13 = load ptr, ptr @gtk, align 8
  %14 = getelementptr inbounds %struct.GtkApi, ptr %13, i32 0, i32 88
  %15 = load ptr, ptr %14, align 8
  %16 = load ptr, ptr %5, align 8
  %17 = load i64, ptr @updateRequestPath.counter, align 8
  %18 = call ptr (ptr, ptr, ...) %15(ptr noundef %16, ptr noundef @.str.65, i64 noundef %17)
  %19 = load ptr, ptr %5, align 8
  %20 = getelementptr inbounds %struct._GString, ptr %19, i32 0, i32 0
  %21 = load ptr, ptr %20, align 8
  %22 = load ptr, ptr %4, align 8
  store ptr %21, ptr %22, align 8
  %23 = load ptr, ptr @gtk, align 8
  %24 = getelementptr inbounds %struct.GtkApi, ptr %23, i32 0, i32 86
  %25 = load ptr, ptr %24, align 8
  %26 = load ptr, ptr %5, align 8
  %27 = call ptr %25(ptr noundef %26, i32 noundef 0)
  %28 = load ptr, ptr @gtk, align 8
  %29 = getelementptr inbounds %struct.GtkApi, ptr %28, i32 0, i32 83
  %30 = load ptr, ptr %29, align 8
  %31 = call ptr %30(ptr noundef null)
  store ptr %31, ptr %6, align 8
  %32 = load ptr, ptr @gtk, align 8
  %33 = getelementptr inbounds %struct.GtkApi, ptr %32, i32 0, i32 88
  %34 = load ptr, ptr %33, align 8
  %35 = load ptr, ptr %6, align 8
  %36 = load ptr, ptr @portal, align 8
  %37 = getelementptr inbounds %struct.XdgDesktopPortalApi, ptr %36, i32 0, i32 2
  %38 = load ptr, ptr %37, align 8
  %39 = load i64, ptr @updateRequestPath.counter, align 8
  %40 = call ptr (ptr, ptr, ...) %34(ptr noundef %35, ptr noundef @.str.66, ptr noundef %38, i64 noundef %39)
  %41 = load ptr, ptr %6, align 8
  %42 = getelementptr inbounds %struct._GString, ptr %41, i32 0, i32 0
  %43 = load ptr, ptr %42, align 8
  %44 = load ptr, ptr %3, align 8
  store ptr %43, ptr %44, align 8
  %45 = load ptr, ptr @gtk, align 8
  %46 = getelementptr inbounds %struct.GtkApi, ptr %45, i32 0, i32 86
  %47 = load ptr, ptr %46, align 8
  %48 = load ptr, ptr %6, align 8
  %49 = call ptr %47(ptr noundef %48, i32 noundef 0)
  ret void
}

; Function Attrs: nounwind uwtable
define hidden i32 @portalScreenCastCreateSession() #0 {
  %1 = alloca ptr, align 8
  %2 = alloca ptr, align 8
  %3 = alloca ptr, align 8
  %4 = alloca ptr, align 8
  %5 = alloca %struct.DBusCallbackHelper, align 8
  %6 = alloca %struct._GVariantBuilder, align 8
  %7 = alloca ptr, align 8
  store ptr null, ptr %1, align 8
  store ptr null, ptr %2, align 8
  store ptr null, ptr %3, align 8
  store ptr null, ptr %4, align 8
  %8 = getelementptr inbounds %struct.DBusCallbackHelper, ptr %5, i32 0, i32 0
  store i32 0, ptr %8, align 8
  %9 = getelementptr inbounds %struct.DBusCallbackHelper, ptr %5, i32 0, i32 1
  %10 = load ptr, ptr @portal, align 8
  %11 = getelementptr inbounds %struct.XdgDesktopPortalApi, ptr %10, i32 0, i32 3
  store ptr %11, ptr %9, align 8
  %12 = getelementptr inbounds %struct.DBusCallbackHelper, ptr %5, i32 0, i32 2
  store i32 0, ptr %12, align 8
  call void @updateRequestPath(ptr noundef %2, ptr noundef %3)
  call void @updateSessionToken(ptr noundef %4)
  %13 = load ptr, ptr @portal, align 8
  %14 = getelementptr inbounds %struct.XdgDesktopPortalApi, ptr %13, i32 0, i32 3
  store ptr null, ptr %14, align 8
  %15 = load ptr, ptr %2, align 8
  call void @registerScreenCastCallback(ptr noundef %15, ptr noundef %5, ptr noundef @callbackScreenCastCreateSession)
  %16 = load ptr, ptr @gtk, align 8
  %17 = getelementptr inbounds %struct.GtkApi, ptr %16, i32 0, i32 78
  %18 = load ptr, ptr %17, align 8
  call void %18(ptr noundef %6, ptr noundef @.str.28)
  %19 = load ptr, ptr @gtk, align 8
  %20 = getelementptr inbounds %struct.GtkApi, ptr %19, i32 0, i32 79
  %21 = load ptr, ptr %20, align 8
  %22 = load ptr, ptr @gtk, align 8
  %23 = getelementptr inbounds %struct.GtkApi, ptr %22, i32 0, i32 69
  %24 = load ptr, ptr %23, align 8
  %25 = load ptr, ptr %3, align 8
  %26 = call ptr %24(ptr noundef %25)
  call void (ptr, ptr, ...) %21(ptr noundef %6, ptr noundef @.str.29, ptr noundef @.str.30, ptr noundef %26)
  %27 = load ptr, ptr @gtk, align 8
  %28 = getelementptr inbounds %struct.GtkApi, ptr %27, i32 0, i32 79
  %29 = load ptr, ptr %28, align 8
  %30 = load ptr, ptr @gtk, align 8
  %31 = getelementptr inbounds %struct.GtkApi, ptr %30, i32 0, i32 69
  %32 = load ptr, ptr %31, align 8
  %33 = load ptr, ptr %4, align 8
  %34 = call ptr %32(ptr noundef %33)
  call void (ptr, ptr, ...) %29(ptr noundef %6, ptr noundef @.str.29, ptr noundef @.str.31, ptr noundef %34)
  %35 = load ptr, ptr @gtk, align 8
  %36 = getelementptr inbounds %struct.GtkApi, ptr %35, i32 0, i32 67
  %37 = load ptr, ptr %36, align 8
  %38 = load ptr, ptr @portal, align 8
  %39 = getelementptr inbounds %struct.XdgDesktopPortalApi, ptr %38, i32 0, i32 1
  %40 = load ptr, ptr %39, align 8
  %41 = load ptr, ptr @gtk, align 8
  %42 = getelementptr inbounds %struct.GtkApi, ptr %41, i32 0, i32 68
  %43 = load ptr, ptr %42, align 8
  %44 = call ptr (ptr, ...) %43(ptr noundef @.str.33, ptr noundef %6)
  %45 = call ptr %37(ptr noundef %40, ptr noundef @.str.32, ptr noundef %44, i32 noundef 0, i32 noundef -1, ptr noundef null, ptr noundef %1)
  store ptr %45, ptr %7, align 8
  %46 = load ptr, ptr %1, align 8
  %47 = icmp ne ptr %46, null
  br i1 %47, label %48, label %53

48:                                               ; preds = %0
  %49 = load ptr, ptr %1, align 8
  %50 = getelementptr inbounds %struct._GError, ptr %49, i32 0, i32 2
  %51 = load ptr, ptr %50, align 8
  call void (ptr, ...) @debug_screencast(ptr noundef @.str.34, ptr noundef @__func__.portalScreenCastCreateSession, i32 noundef 426, ptr noundef %51)
  %52 = load ptr, ptr %1, align 8
  call void @errHandle(ptr noundef %52, ptr noundef @__func__.portalScreenCastCreateSession, i32 noundef 427)
  br label %65

53:                                               ; preds = %0
  br label %54

54:                                               ; preds = %59, %53
  %55 = getelementptr inbounds %struct.DBusCallbackHelper, ptr %5, i32 0, i32 2
  %56 = load i32, ptr %55, align 8
  %57 = icmp ne i32 %56, 0
  %58 = xor i1 %57, true
  br i1 %58, label %59, label %64

59:                                               ; preds = %54
  %60 = load ptr, ptr @gtk, align 8
  %61 = getelementptr inbounds %struct.GtkApi, ptr %60, i32 0, i32 97
  %62 = load ptr, ptr %61, align 8
  %63 = call i32 %62(ptr noundef null, i32 noundef 1)
  br label %54, !llvm.loop !8

64:                                               ; preds = %54
  br label %65

65:                                               ; preds = %64, %48
  call void @unregisterScreenCastCallback(ptr noundef %5)
  %66 = load ptr, ptr %7, align 8
  %67 = icmp ne ptr %66, null
  br i1 %67, label %68, label %73

68:                                               ; preds = %65
  %69 = load ptr, ptr @gtk, align 8
  %70 = getelementptr inbounds %struct.GtkApi, ptr %69, i32 0, i32 77
  %71 = load ptr, ptr %70, align 8
  %72 = load ptr, ptr %7, align 8
  call void %71(ptr noundef %72)
  br label %73

73:                                               ; preds = %68, %65
  %74 = load ptr, ptr %4, align 8
  call void @free(ptr noundef %74) #7
  %75 = load ptr, ptr %2, align 8
  call void @free(ptr noundef %75) #7
  %76 = load ptr, ptr %3, align 8
  call void @free(ptr noundef %76) #7
  %77 = load ptr, ptr @portal, align 8
  %78 = getelementptr inbounds %struct.XdgDesktopPortalApi, ptr %77, i32 0, i32 3
  %79 = load ptr, ptr %78, align 8
  %80 = icmp ne ptr %79, null
  %81 = zext i1 %80 to i32
  ret i32 %81
}