; Function Attrs: nounwind uwtable
define hidden range(i32 0, 2) i32 @portalScreenCastCreateSession() local_unnamed_addr #0 {
  %1 = alloca ptr, align 8
  %2 = alloca %struct.DBusCallbackHelper, align 8
  %3 = alloca %struct._GVariantBuilder, align 8
  store ptr null, ptr %1, align 8
  store i32 0, ptr %2, align 8
  %4 = getelementptr inbounds i8, ptr %2, i64 8
  %5 = load ptr, ptr @portal, align 8
  %6 = getelementptr inbounds i8, ptr %5, i64 24
  store ptr %6, ptr %4, align 8
  %7 = getelementptr inbounds i8, ptr %2, i64 16
  store i32 0, ptr %7, align 8
  %8 = load i64, ptr @updateRequestPath.counter, align 8
  %9 = add i64 %8, 1
  store i64 %9, ptr @updateRequestPath.counter, align 8
  %10 = load ptr, ptr @gtk, align 8
  %11 = getelementptr inbounds i8, ptr %10, i64 664
  %12 = load ptr, ptr %11, align 8
  %13 = tail call ptr %12(ptr noundef null) #9
  %14 = load ptr, ptr @gtk, align 8
  %15 = getelementptr inbounds i8, ptr %14, i64 704
  %16 = load ptr, ptr %15, align 8
  %17 = load i64, ptr @updateRequestPath.counter, align 8
  %18 = tail call ptr (ptr, ptr, ...) %16(ptr noundef %13, ptr noundef nonnull @.str.65, i64 noundef %17) #9
  %19 = load ptr, ptr %13, align 8
  %20 = load ptr, ptr @gtk, align 8
  %21 = getelementptr inbounds i8, ptr %20, i64 688
  %22 = load ptr, ptr %21, align 8
  %23 = tail call ptr %22(ptr noundef nonnull %13, i32 noundef 0) #9
  %24 = load ptr, ptr @gtk, align 8
  %25 = getelementptr inbounds i8, ptr %24, i64 664
  %26 = load ptr, ptr %25, align 8
  %27 = tail call ptr %26(ptr noundef null) #9
  %28 = load ptr, ptr @gtk, align 8
  %29 = getelementptr inbounds i8, ptr %28, i64 704
  %30 = load ptr, ptr %29, align 8
  %31 = load ptr, ptr @portal, align 8
  %32 = getelementptr inbounds i8, ptr %31, i64 16
  %33 = load ptr, ptr %32, align 8
  %34 = load i64, ptr @updateRequestPath.counter, align 8
  %35 = tail call ptr (ptr, ptr, ...) %30(ptr noundef %27, ptr noundef nonnull @.str.66, ptr noundef %33, i64 noundef %34) #9
  %36 = load ptr, ptr %27, align 8
  %37 = load ptr, ptr @gtk, align 8
  %38 = getelementptr inbounds i8, ptr %37, i64 688
  %39 = load ptr, ptr %38, align 8
  %40 = tail call ptr %39(ptr noundef nonnull %27, i32 noundef 0) #9
  %41 = load i64, ptr @updateSessionToken.counter, align 8
  %42 = add i64 %41, 1
  store i64 %42, ptr @updateSessionToken.counter, align 8
  %43 = load ptr, ptr @gtk, align 8
  %44 = getelementptr inbounds i8, ptr %43, i64 664
  %45 = load ptr, ptr %44, align 8
  %46 = tail call ptr %45(ptr noundef null) #9
  %47 = load ptr, ptr @gtk, align 8
  %48 = getelementptr inbounds i8, ptr %47, i64 704
  %49 = load ptr, ptr %48, align 8
  %50 = load i64, ptr @updateSessionToken.counter, align 8
  %51 = tail call ptr (ptr, ptr, ...) %49(ptr noundef %46, ptr noundef nonnull @.str.65, i64 noundef %50) #9
  %52 = load ptr, ptr %46, align 8
  %53 = load ptr, ptr @gtk, align 8
  %54 = getelementptr inbounds i8, ptr %53, i64 688
  %55 = load ptr, ptr %54, align 8
  %56 = tail call ptr %55(ptr noundef nonnull %46, i32 noundef 0) #9
  %57 = load ptr, ptr @portal, align 8
  %58 = getelementptr inbounds i8, ptr %57, i64 24
  store ptr null, ptr %58, align 8
  %59 = load ptr, ptr @gtk, align 8
  %60 = getelementptr inbounds i8, ptr %59, i64 744
  %61 = load ptr, ptr %60, align 8
  %62 = load ptr, ptr %57, align 8
  %63 = call i32 %61(ptr noundef %62, ptr noundef nonnull @.str.25, ptr noundef nonnull @.str.67, ptr noundef nonnull @.str.68, ptr noundef %36, ptr noundef null, i32 noundef 1, ptr noundef nonnull @callbackScreenCastCreateSession, ptr noundef nonnull %2, ptr noundef null) #9
  store i32 %63, ptr %2, align 8
  %64 = load ptr, ptr @gtk, align 8
  %65 = getelementptr inbounds i8, ptr %64, i64 624
  %66 = load ptr, ptr %65, align 8
  call void %66(ptr noundef nonnull %3, ptr noundef nonnull @.str.28) #9
  %67 = load ptr, ptr @gtk, align 8
  %68 = getelementptr inbounds i8, ptr %67, i64 632
  %69 = load ptr, ptr %68, align 8
  %70 = getelementptr inbounds i8, ptr %67, i64 552
  %71 = load ptr, ptr %70, align 8
  %72 = call ptr %71(ptr noundef %19) #9
  call void (ptr, ptr, ...) %69(ptr noundef nonnull %3, ptr noundef nonnull @.str.29, ptr noundef nonnull @.str.30, ptr noundef %72) #9
  %73 = load ptr, ptr @gtk, align 8
  %74 = getelementptr inbounds i8, ptr %73, i64 632
  %75 = load ptr, ptr %74, align 8
  %76 = getelementptr inbounds i8, ptr %73, i64 552
  %77 = load ptr, ptr %76, align 8
  %78 = call ptr %77(ptr noundef %52) #9
  call void (ptr, ptr, ...) %75(ptr noundef nonnull %3, ptr noundef nonnull @.str.29, ptr noundef nonnull @.str.31, ptr noundef %78) #9
  %79 = load ptr, ptr @gtk, align 8
  %80 = getelementptr inbounds i8, ptr %79, i64 536
  %81 = load ptr, ptr %80, align 8
  %82 = load ptr, ptr @portal, align 8
  %83 = getelementptr inbounds i8, ptr %82, i64 8
  %84 = load ptr, ptr %83, align 8
  %85 = getelementptr inbounds i8, ptr %79, i64 544
  %86 = load ptr, ptr %85, align 8
  %87 = call ptr (ptr, ...) %86(ptr noundef nonnull @.str.33, ptr noundef nonnull %3) #9
  %88 = call ptr %81(ptr noundef %84, ptr noundef nonnull @.str.32, ptr noundef %87, i32 noundef 0, i32 noundef -1, ptr noundef null, ptr noundef nonnull %1) #9
  %89 = load ptr, ptr %1, align 8
  %.not = icmp eq ptr %89, null
  br i1 %.not, label %.preheader, label %91

.preheader:                                       ; preds = %0
  %90 = load i32, ptr %7, align 8
  %.not311 = icmp eq i32 %90, 0
  br i1 %.not311, label %.lr.ph, label %errHandle.exit

91:                                               ; preds = %0
  %92 = getelementptr inbounds i8, ptr %89, i64 8
  %93 = load ptr, ptr %92, align 8
  call void (ptr, ...) @debug_screencast(ptr noundef nonnull @.str.34, ptr noundef nonnull @__func__.portalScreenCastCreateSession, i32 noundef 426, ptr noundef %93) #9
  %94 = load ptr, ptr %1, align 8
  %.not.i = icmp eq ptr %94, null
  br i1 %.not.i, label %errHandle.exit, label %95

95:                                               ; preds = %91
  %96 = load ptr, ptr @stderr, align 8
  %97 = load i32, ptr %94, align 8
  %98 = getelementptr inbounds i8, ptr %94, i64 4
  %99 = load i32, ptr %98, align 4
  %100 = getelementptr inbounds i8, ptr %94, i64 8
  %101 = load ptr, ptr %100, align 8
  %102 = call i32 (ptr, ptr, ...) @fprintf(ptr noundef %96, ptr noundef nonnull @.str, ptr noundef nonnull @__func__.portalScreenCastCreateSession, i32 noundef 427, i32 noundef %97, i32 noundef %99, ptr noundef %101) #8
  %103 = load ptr, ptr @gtk, align 8
  %104 = getelementptr inbounds i8, ptr %103, i64 784
  %105 = load ptr, ptr %104, align 8
  call void %105(ptr noundef nonnull %94) #9
  br label %errHandle.exit

.lr.ph:                                           ; preds = %.preheader, %.lr.ph
  %106 = load ptr, ptr @gtk, align 8
  %107 = getelementptr inbounds i8, ptr %106, i64 776
  %108 = load ptr, ptr %107, align 8
  %109 = call i32 %108(ptr noundef null, i32 noundef 1) #9
  %110 = load i32, ptr %7, align 8
  %.not3 = icmp eq i32 %110, 0
  br i1 %.not3, label %.lr.ph, label %errHandle.exit, !llvm.loop !8

errHandle.exit:                                   ; preds = %.lr.ph, %.preheader, %95, %91
  %.val = load i32, ptr %2, align 8
  %.not.i5 = icmp eq i32 %.val, 0
  br i1 %.not.i5, label %unregisterScreenCastCallback.exit, label %111

111:                                              ; preds = %errHandle.exit
  %112 = load ptr, ptr @gtk, align 8
  %113 = getelementptr inbounds i8, ptr %112, i64 752
  %114 = load ptr, ptr %113, align 8
  %115 = load ptr, ptr @portal, align 8
  %116 = load ptr, ptr %115, align 8
  call void %114(ptr noundef %116, i32 noundef %.val) #9
  br label %unregisterScreenCastCallback.exit

unregisterScreenCastCallback.exit:                ; preds = %errHandle.exit, %111
  %.not4 = icmp eq ptr %88, null
  br i1 %.not4, label %121, label %117

117:                                              ; preds = %unregisterScreenCastCallback.exit
  %118 = load ptr, ptr @gtk, align 8
  %119 = getelementptr inbounds i8, ptr %118, i64 616
  %120 = load ptr, ptr %119, align 8
  call void %120(ptr noundef nonnull %88) #9
  br label %121

121:                                              ; preds = %117, %unregisterScreenCastCallback.exit
  call void @free(ptr noundef %52) #9
  call void @free(ptr noundef %36) #9
  call void @free(ptr noundef %19) #9
  %122 = load ptr, ptr @portal, align 8
  %123 = getelementptr inbounds i8, ptr %122, i64 24
  %124 = load ptr, ptr %123, align 8
  %125 = icmp ne ptr %124, null
  %126 = zext i1 %125 to i32
  ret i32 %126
}